target datalayout = "e-m:e-p270:32:32-p271:32:32-p272:64:64-i64:64-i128:128-f80:128-n8:16:32:64-S128"
target triple = "x86_64-pc-linux-gnu"

%struct.Curl_easy = type { i32, i64, i64, ptr, %struct.Curl_llist_node, %struct.Curl_llist_node, i32, i32, %struct.Curl_message, %struct.easy_pollset, %struct.Names, ptr, ptr, ptr, ptr, %struct.SingleRequest, %struct.UserDefined, ptr, ptr, ptr, %struct.Progress, %struct.UrlState, ptr, %struct.PureInfo, %struct.curl_tlssessioninfo }
%struct.Curl_llist_node = type { ptr, ptr, ptr, ptr }
%struct.Curl_message = type { %struct.Curl_llist_node, %struct.CURLMsg }
%struct.CURLMsg = type { i32, ptr, %union.anon }
%union.anon = type { ptr }
%struct.easy_pollset = type { [5 x i32], i32, [5 x i8] }
%struct.Names = type { ptr, i32 }
%struct.SingleRequest = type <{ i64, i64, i64, i64, %struct.curltime, i32, i32, i32, i32, i64, i32, i32, i8, i8, [2 x i8], i32, ptr, ptr, %struct.bufq, i64, i64, ptr, ptr, %union.anon.0, ptr, i8, i32, [3 x i8] }>
%struct.curltime = type { i64, i32 }
%struct.bufq = type { ptr, ptr, ptr, ptr, i64, i64, i64, i32 }
%union.anon.0 = type { ptr }
%struct.UserDefined = type <{ ptr, ptr, ptr, ptr, ptr, ptr, i64, i64, i64, ptr, ptr, i64, ptr, ptr, ptr, ptr, ptr, ptr, ptr, ptr, ptr, ptr, ptr, ptr, ptr, ptr, ptr, ptr, ptr, ptr, ptr, ptr, ptr, ptr, ptr, i64, i64, i64, i64, i64, i64, i64, i64, i64, ptr, ptr, %struct.curl_mimepart, ptr, ptr, ptr, i64, %struct.ssl_config_data, %struct.ssl_config_data, ptr, i16, i8, i8, %struct.ssl_general_config, i32, i32, i32, [4 x i8], ptr, ptr, i64, i32, i8, i8, i8, i8, ptr, ptr, ptr, i32, [4 x i8], [74 x ptr], [8 x ptr], i32, i32, i32, [4 x i8], ptr, i32, [4 x i8], ptr, ptr, ptr, ptr, ptr, i32, i32, i32, i32, i32, i32, i32, i32, i64, ptr, ptr, i64, ptr, i64, ptr, ptr, ptr, ptr, i32, i16, i16, i16, i8, i8, i8, i8, i8, i8, i8, i8, i64, [6 x i8] }>
%struct.curl_mimepart = type { ptr, ptr, i32, i32, ptr, ptr, ptr, ptr, ptr, ptr, ptr, ptr, ptr, ptr, ptr, i64, %struct.mime_state, ptr, %struct.mime_encoder_state, i64 }
%struct.mime_state = type { i32, ptr, i64 }
%struct.mime_encoder_state = type { i64, i64, i64, [256 x i8] }
%struct.ssl_config_data = type { %struct.ssl_primary_config, i64, ptr, ptr, ptr, ptr, ptr, ptr, ptr, i16 }
%struct.ssl_primary_config = type { ptr, ptr, ptr, ptr, ptr, ptr, ptr, ptr, ptr, ptr, ptr, ptr, ptr, ptr, i8, i32, i8, i8 }
%struct.ssl_general_config = type { i32 }
%struct.Progress = type { i64, %struct.pgrs_dir, %struct.pgrs_dir, i64, i64, i32, i32, i64, i64, i64, i64, i64, i64, i64, i64, i64, %struct.curltime, %struct.curltime, %struct.curltime, %struct.curltime, %struct.curltime, [6 x i64], [6 x %struct.curltime], i32, i8 }
%struct.pgrs_dir = type { i64, i64, i64, %struct.pgrs_measure }
%struct.pgrs_measure = type { %struct.curltime, i64 }
%struct.UrlState = type { %struct.curltime, i64, i64, %struct.dynbuf, ptr, i64, ptr, i32, i32, i32, ptr, i32, i64, i32, ptr, %struct.digestdata, %struct.digestdata, %struct.auth, %struct.auth, %struct.Curl_async, ptr, i8, %struct.curltime, %struct.Curl_tree, %struct.Curl_llist, [15 x %struct.time_node], ptr, ptr, i64, i64, i64, i64, [32 x i8], i64, ptr, ptr, ptr, %struct.urlpieces, ptr, ptr, ptr, ptr, ptr, i64, %struct.dynbuf, %struct.Curl_llist, [2 x %struct.curl_header], ptr, i32, ptr, ptr, %struct.store_netrc, %struct.dynamically_allocated_data, i8, i8, i8, i8, i32 }
%struct.digestdata = type { ptr, ptr, ptr, ptr, ptr, ptr, i32, i8, i8 }
%struct.auth = type { i64, i64, i64, i8 }
%struct.Curl_async = type { ptr, ptr, ptr, ptr, i32, i32, i8 }
%struct.Curl_tree = type { ptr, ptr, ptr, ptr, %struct.curltime, ptr }
%struct.time_node = type { %struct.Curl_llist_node, %struct.curltime, i32 }
%struct.urlpieces = type { ptr, ptr, ptr, ptr, ptr, ptr, ptr, ptr }
%struct.dynbuf = type { ptr, i64, i64, i64 }
%struct.Curl_llist = type { ptr, ptr, ptr, i64 }
%struct.curl_header = type { ptr, ptr, i64, i64, i32, ptr }
%struct.store_netrc = type { %struct.dynbuf, ptr, i8 }
%struct.dynamically_allocated_data = type { ptr, ptr, ptr, ptr, ptr, ptr, ptr, ptr, ptr, ptr, ptr, ptr, ptr, ptr }
%struct.PureInfo = type { i32, i32, i32, i64, i64, i64, i64, i64, i64, i64, ptr, ptr, i64, i32, %struct.ip_quadruple, i32, ptr, i32, %struct.curl_certinfo, i32, i8 }
%struct.ip_quadruple = type { [46 x i8], [46 x i8], i32, i32 }
%struct.curl_certinfo = type { i32, ptr }
%struct.curl_tlssessioninfo = type { i32, ptr }

; Function Attrs: nounwind uwtable
define hidden void @Curl_pgrsTimeWas(ptr noundef %0, i32 noundef %1, i64 %2, i32 %3) #0 {
  %5 = alloca %struct.curltime, align 8
  %6 = alloca ptr, align 8
  %7 = alloca i32, align 4
  %8 = alloca ptr, align 8
  %9 = alloca i32, align 4
  %10 = alloca i64, align 8
  %11 = getelementptr inbounds nuw { i64, i32 }, ptr %5, i32 0, i32 0
  store i64 %2, ptr %11, align 8
  %12 = getelementptr inbounds nuw { i64, i32 }, ptr %5, i32 0, i32 1
  store i32 %3, ptr %12, align 8
  store ptr %0, ptr %6, align 8, !tbaa !3
  store i32 %1, ptr %7, align 4, !tbaa !77
  call void @llvm.lifetime.start.p0(i64 8, ptr %8) #5
  store ptr null, ptr %8, align 8, !tbaa !88
  %13 = load i32, ptr %7, align 4, !tbaa !77
  switch i32 %13, label %14 [
    i32 0, label %116
    i32 1, label %15
    i32 2, label %25
    i32 3, label %35
    i32 10, label %53
    i32 4, label %57
    i32 5, label %61
    i32 6, label %65
    i32 7, label %69
    i32 8, label %73
    i32 9, label %93
    i32 11, label %97
  ]

14:                                               ; preds = %4
  br label %116

15:                                               ; preds = %4
  %16 = load ptr, ptr %6, align 8, !tbaa !3
  %17 = getelementptr inbounds nuw %struct.Curl_easy, ptr %16, i32 0, i32 20
  %18 = getelementptr inbounds nuw %struct.Progress, ptr %17, i32 0, i32 18
  call void @llvm.memcpy.p0.p0.i64(ptr align 8 %18, ptr align 8 %5, i64 16, i1 false), !tbaa.struct !90
  %19 = load ptr, ptr %6, align 8, !tbaa !3
  %20 = getelementptr inbounds nuw %struct.Curl_easy, ptr %19, i32 0, i32 20
  %21 = getelementptr inbounds nuw %struct.Progress, ptr %20, i32 0, i32 19
  call void @llvm.memcpy.p0.p0.i64(ptr align 8 %21, ptr align 8 %5, i64 16, i1 false), !tbaa.struct !90
  %22 = load ptr, ptr %6, align 8, !tbaa !3
  %23 = getelementptr inbounds nuw %struct.Curl_easy, ptr %22, i32 0, i32 20
  %24 = getelementptr inbounds nuw %struct.Progress, ptr %23, i32 0, i32 8
  store i64 0, ptr %24, align 8, !tbaa !91
  br label %116

25:                                               ; preds = %4
  %26 = load ptr, ptr %6, align 8, !tbaa !3
  %27 = getelementptr inbounds nuw %struct.Curl_easy, ptr %26, i32 0, i32 20
  %28 = getelementptr inbounds nuw %struct.Progress, ptr %27, i32 0, i32 17
  call void @llvm.memcpy.p0.p0.i64(ptr align 8 %28, ptr align 8 %5, i64 16, i1 false), !tbaa.struct !90
  %29 = load ptr, ptr %6, align 8, !tbaa !3
  %30 = getelementptr inbounds nuw %struct.Curl_easy, ptr %29, i32 0, i32 20
  %31 = getelementptr inbounds nuw %struct.Progress, ptr %30, i32 0, i32 24
  %32 = load i8, ptr %31, align 4
  %33 = and i8 %32, -3
  %34 = or i8 %33, 0
  store i8 %34, ptr %31, align 4
  br label %116

35:                                               ; preds = %4
  %36 = load ptr, ptr %6, align 8, !tbaa !3
  %37 = getelementptr inbounds nuw %struct.Curl_easy, ptr %36, i32 0, i32 20
  %38 = getelementptr inbounds nuw %struct.Progress, ptr %37, i32 0, i32 19
  %39 = getelementptr inbounds nuw { i64, i32 }, ptr %5, i32 0, i32 0
  %40 = load i64, ptr %39, align 8
  %41 = getelementptr inbounds nuw { i64, i32 }, ptr %5, i32 0, i32 1
  %42 = load i32, ptr %41, align 8
  %43 = getelementptr inbounds nuw { i64, i32 }, ptr %38, i32 0, i32 0
  %44 = load i64, ptr %43, align 8
  %45 = getelementptr inbounds nuw { i64, i32 }, ptr %38, i32 0, i32 1
  %46 = load i32, ptr %45, align 8
  %47 = call i64 @Curl_timediff_us(i64 %40, i32 %42, i64 %44, i32 %46)
  %48 = load ptr, ptr %6, align 8, !tbaa !3
  %49 = getelementptr inbounds nuw %struct.Curl_easy, ptr %48, i32 0, i32 20
  %50 = getelementptr inbounds nuw %struct.Progress, ptr %49, i32 0, i32 8
  %51 = load i64, ptr %50, align 8, !tbaa !91
  %52 = add nsw i64 %51, %47
  store i64 %52, ptr %50, align 8, !tbaa !91
  br label %116

53:                                               ; preds = %4
  %54 = load ptr, ptr %6, align 8, !tbaa !3
  %55 = getelementptr inbounds nuw %struct.Curl_easy, ptr %54, i32 0, i32 20
  %56 = getelementptr inbounds nuw %struct.Progress, ptr %55, i32 0, i32 20
  call void @llvm.memcpy.p0.p0.i64(ptr align 8 %56, ptr align 8 %5, i64 16, i1 false), !tbaa.struct !90
  br label %116

57:                                               ; preds = %4
  %58 = load ptr, ptr %6, align 8, !tbaa !3
  %59 = getelementptr inbounds nuw %struct.Curl_easy, ptr %58, i32 0, i32 20
  %60 = getelementptr inbounds nuw %struct.Progress, ptr %59, i32 0, i32 9
  store ptr %60, ptr %8, align 8, !tbaa !88
  br label %116

61:                                               ; preds = %4
  %62 = load ptr, ptr %6, align 8, !tbaa !3
  %63 = getelementptr inbounds nuw %struct.Curl_easy, ptr %62, i32 0, i32 20
  %64 = getelementptr inbounds nuw %struct.Progress, ptr %63, i32 0, i32 10
  store ptr %64, ptr %8, align 8, !tbaa !88
  br label %116

65:                                               ; preds = %4
  %66 = load ptr, ptr %6, align 8, !tbaa !3
  %67 = getelementptr inbounds nuw %struct.Curl_easy, ptr %66, i32 0, i32 20
  %68 = getelementptr inbounds nuw %struct.Progress, ptr %67, i32 0, i32 11
  store ptr %68, ptr %8, align 8, !tbaa !88
  br label %116

69:                                               ; preds = %4
  %70 = load ptr, ptr %6, align 8, !tbaa !3
  %71 = getelementptr inbounds nuw %struct.Curl_easy, ptr %70, i32 0, i32 20
  %72 = getelementptr inbounds nuw %struct.Progress, ptr %71, i32 0, i32 12
  store ptr %72, ptr %8, align 8, !tbaa !88
  br label %116

73:                                               ; preds = %4
  %74 = load ptr, ptr %6, align 8, !tbaa !3
  %75 = getelementptr inbounds nuw %struct.Curl_easy, ptr %74, i32 0, i32 20
  %76 = getelementptr inbounds nuw %struct.Progress, ptr %75, i32 0, i32 14
  store ptr %76, ptr %8, align 8, !tbaa !88
  %77 = load ptr, ptr %6, align 8, !tbaa !3
  %78 = getelementptr inbounds nuw %struct.Curl_easy, ptr %77, i32 0, i32 20
  %79 = getelementptr inbounds nuw %struct.Progress, ptr %78, i32 0, i32 24
  %80 = load i8, ptr %79, align 4
  %81 = lshr i8 %80, 1
  %82 = and i8 %81, 1
  %83 = zext i8 %82 to i32
  %84 = icmp ne i32 %83, 0
  br i1 %84, label %85, label %86

85:                                               ; preds = %73
  store i32 1, ptr %9, align 4
  br label %141

86:                                               ; preds = %73
  %87 = load ptr, ptr %6, align 8, !tbaa !3
  %88 = getelementptr inbounds nuw %struct.Curl_easy, ptr %87, i32 0, i32 20
  %89 = getelementptr inbounds nuw %struct.Progress, ptr %88, i32 0, i32 24
  %90 = load i8, ptr %89, align 4
  %91 = and i8 %90, -3
  %92 = or i8 %91, 2
  store i8 %92, ptr %89, align 4
  br label %116

93:                                               ; preds = %4
  %94 = load ptr, ptr %6, align 8, !tbaa !3
  %95 = getelementptr inbounds nuw %struct.Curl_easy, ptr %94, i32 0, i32 20
  %96 = getelementptr inbounds nuw %struct.Progress, ptr %95, i32 0, i32 13
  store ptr %96, ptr %8, align 8, !tbaa !88
  br label %116

97:                                               ; preds = %4
  %98 = load ptr, ptr %6, align 8, !tbaa !3
  %99 = getelementptr inbounds nuw %struct.Curl_easy, ptr %98, i32 0, i32 20
  %100 = getelementptr inbounds nuw %struct.Progress, ptr %99, i32 0, i32 16
  %101 = getelementptr inbounds nuw { i64, i32 }, ptr %5, i32 0, i32 0
  %102 = load i64, ptr %101, align 8
  %103 = getelementptr inbounds nuw { i64, i32 }, ptr %5, i32 0, i32 1
  %104 = load i32, ptr %103, align 8
  %105 = getelementptr inbounds nuw { i64, i32 }, ptr %100, i32 0, i32 0
  %106 = load i64, ptr %105, align 8
  %107 = getelementptr inbounds nuw { i64, i32 }, ptr %100, i32 0, i32 1
  %108 = load i32, ptr %107, align 8
  %109 = call i64 @Curl_timediff_us(i64 %102, i32 %104, i64 %106, i32 %108)
  %110 = load ptr, ptr %6, align 8, !tbaa !3
  %111 = getelementptr inbounds nuw %struct.Curl_easy, ptr %110, i32 0, i32 20
  %112 = getelementptr inbounds nuw %struct.Progress, ptr %111, i32 0, i32 15
  store i64 %109, ptr %112, align 8, !tbaa !92
  %113 = load ptr, ptr %6, align 8, !tbaa !3
  %114 = getelementptr inbounds nuw %struct.Curl_easy, ptr %113, i32 0, i32 20
  %115 = getelementptr inbounds nuw %struct.Progress, ptr %114, i32 0, i32 19
  call void @llvm.memcpy.p0.p0.i64(ptr align 8 %115, ptr align 8 %5, i64 16, i1 false), !tbaa.struct !90
  br label %116

116:                                              ; preds = %97, %93, %4, %86, %69, %65, %61, %57, %53, %35, %25, %15, %14
  %117 = load ptr, ptr %8, align 8, !tbaa !88
  %118 = icmp ne ptr %117, null
  br i1 %118, label %119, label %140

119:                                              ; preds = %116
  call void @llvm.lifetime.start.p0(i64 8, ptr %10) #5
  %120 = load ptr, ptr %6, align 8, !tbaa !3
  %121 = getelementptr inbounds nuw %struct.Curl_easy, ptr %120, i32 0, i32 20
  %122 = getelementptr inbounds nuw %struct.Progress, ptr %121, i32 0, i32 17
  %123 = getelementptr inbounds nuw { i64, i32 }, ptr %5, i32 0, i32 0
  %124 = load i64, ptr %123, align 8
  %125 = getelementptr inbounds nuw { i64, i32 }, ptr %5, i32 0, i32 1
  %126 = load i32, ptr %125, align 8
  %127 = getelementptr inbounds nuw { i64, i32 }, ptr %122, i32 0, i32 0
  %128 = load i64, ptr %127, align 8
  %129 = getelementptr inbounds nuw { i64, i32 }, ptr %122, i32 0, i32 1
  %130 = load i32, ptr %129, align 8
  %131 = call i64 @Curl_timediff_us(i64 %124, i32 %126, i64 %128, i32 %130)
  store i64 %131, ptr %10, align 8, !tbaa !85
  %132 = load i64, ptr %10, align 8, !tbaa !85
  %133 = icmp slt i64 %132, 1
  br i1 %133, label %134, label %135

134:                                              ; preds = %119
  store i64 1, ptr %10, align 8, !tbaa !85
  br label %135

135:                                              ; preds = %134, %119
  %136 = load i64, ptr %10, align 8, !tbaa !85
  %137 = load ptr, ptr %8, align 8, !tbaa !88
  %138 = load i64, ptr %137, align 8, !tbaa !85
  %139 = add nsw i64 %138, %136
  store i64 %139, ptr %137, align 8, !tbaa !85
  call void @llvm.lifetime.end.p0(i64 8, ptr %10) #5
  br label %140

140:                                              ; preds = %135, %116
  store i32 0, ptr %9, align 4
  br label %141

141:                                              ; preds = %140, %85
  call void @llvm.lifetime.end.p0(i64 8, ptr %8) #5
  %142 = load i32, ptr %9, align 4
  switch i32 %142, label %144 [
    i32 0, label %143
    i32 1, label %143
  ]

143:                                              ; preds = %141, %141
  ret void

144:                                              ; preds = %141
  unreachable
}