; Function Attrs: nounwind uwtable
define hidden void @Curl_pgrsTimeWas(ptr noundef captures(none) %0, i32 noundef %1, i64 %2, i32 %3) local_unnamed_addr #0 {
  switch i32 %1, label %.thread [
    i32 11, label %42
    i32 1, label %5
    i32 2, label %9
    i32 3, label %14
    i32 10, label %23
    i32 4, label %25
    i32 5, label %27
    i32 6, label %29
    i32 7, label %31
    i32 8, label %33
    i32 9, label %40
  ]

5:                                                ; preds = %4
  %6 = getelementptr inbounds nuw i8, ptr %0, i64 2928
  store i64 %2, ptr %6, align 8, !tbaa !91
  %.sroa.9.0..sroa_idx = getelementptr inbounds nuw i8, ptr %0, i64 2936
  store i32 %3, ptr %.sroa.9.0..sroa_idx, align 8, !tbaa !97
  %7 = getelementptr inbounds nuw i8, ptr %0, i64 2944
  store i64 %2, ptr %7, align 8, !tbaa !91
  %.sroa.9.0..sroa_idx30 = getelementptr inbounds nuw i8, ptr %0, i64 2952
  store i32 %3, ptr %.sroa.9.0..sroa_idx30, align 8, !tbaa !97
  %8 = getelementptr inbounds nuw i8, ptr %0, i64 2832
  store i64 0, ptr %8, align 8, !tbaa !98
  br label %.thread

9:                                                ; preds = %4
  %10 = getelementptr inbounds nuw i8, ptr %0, i64 2912
  store i64 %2, ptr %10, align 8, !tbaa !91
  %.sroa.9.0..sroa_idx32 = getelementptr inbounds nuw i8, ptr %0, i64 2920
  store i32 %3, ptr %.sroa.9.0..sroa_idx32, align 8, !tbaa !97
  %11 = getelementptr inbounds nuw i8, ptr %0, i64 3124
  %12 = load i8, ptr %11, align 4
  %13 = and i8 %12, -3
  store i8 %13, ptr %11, align 4
  br label %.thread

14:                                               ; preds = %4
  %15 = getelementptr inbounds nuw i8, ptr %0, i64 2944
  %16 = load i64, ptr %15, align 8
  %17 = getelementptr inbounds nuw i8, ptr %0, i64 2952
  %18 = load i32, ptr %17, align 8
  %19 = tail call i64 @Curl_timediff_us(i64 %2, i32 %3, i64 %16, i32 %18) #8
  %20 = getelementptr inbounds nuw i8, ptr %0, i64 2832
  %21 = load i64, ptr %20, align 8, !tbaa !98
  %22 = add nsw i64 %21, %19
  store i64 %22, ptr %20, align 8, !tbaa !98
  br label %.thread

23:                                               ; preds = %4
  %24 = getelementptr inbounds nuw i8, ptr %0, i64 2960
  store i64 %2, ptr %24, align 8, !tbaa !91
  %.sroa.9.0..sroa_idx34 = getelementptr inbounds nuw i8, ptr %0, i64 2968
  store i32 %3, ptr %.sroa.9.0..sroa_idx34, align 8, !tbaa !97
  br label %.thread

25:                                               ; preds = %4
  %26 = getelementptr inbounds nuw i8, ptr %0, i64 2840
  br label %50

27:                                               ; preds = %4
  %28 = getelementptr inbounds nuw i8, ptr %0, i64 2848
  br label %50

29:                                               ; preds = %4
  %30 = getelementptr inbounds nuw i8, ptr %0, i64 2856
  br label %50

31:                                               ; preds = %4
  %32 = getelementptr inbounds nuw i8, ptr %0, i64 2864
  br label %50

33:                                               ; preds = %4
  %34 = getelementptr inbounds nuw i8, ptr %0, i64 3124
  %35 = load i8, ptr %34, align 4
  %36 = and i8 %35, 2
  %.not = icmp eq i8 %36, 0
  br i1 %.not, label %37, label %.thread

37:                                               ; preds = %33
  %38 = getelementptr inbounds nuw i8, ptr %0, i64 2880
  %39 = or disjoint i8 %35, 2
  store i8 %39, ptr %34, align 4
  br label %50

40:                                               ; preds = %4
  %41 = getelementptr inbounds nuw i8, ptr %0, i64 2872
  br label %50

42:                                               ; preds = %4
  %43 = getelementptr inbounds nuw i8, ptr %0, i64 2896
  %44 = load i64, ptr %43, align 8
  %45 = getelementptr inbounds nuw i8, ptr %0, i64 2904
  %46 = load i32, ptr %45, align 8
  %47 = tail call i64 @Curl_timediff_us(i64 %2, i32 %3, i64 %44, i32 %46) #8
  %48 = getelementptr inbounds nuw i8, ptr %0, i64 2888
  store i64 %47, ptr %48, align 8, !tbaa !99
  %49 = getelementptr inbounds nuw i8, ptr %0, i64 2944
  store i64 %2, ptr %49, align 8, !tbaa !91
  %.sroa.9.0..sroa_idx36 = getelementptr inbounds nuw i8, ptr %0, i64 2952
  store i32 %3, ptr %.sroa.9.0..sroa_idx36, align 8, !tbaa !97
  br label %.thread

50:                                               ; preds = %25, %27, %29, %31, %37, %40
  %.0 = phi ptr [ %41, %40 ], [ %38, %37 ], [ %32, %31 ], [ %30, %29 ], [ %28, %27 ], [ %26, %25 ]
  %51 = getelementptr inbounds nuw i8, ptr %0, i64 2912
  %52 = load i64, ptr %51, align 8
  %53 = getelementptr inbounds nuw i8, ptr %0, i64 2920
  %54 = load i32, ptr %53, align 8
  %55 = tail call i64 @Curl_timediff_us(i64 %2, i32 %3, i64 %52, i32 %54) #8
  %spec.store.select = tail call i64 @llvm.smax.i64(i64 %55, i64 1)
  %56 = load i64, ptr %.0, align 8, !tbaa !91
  %57 = add nsw i64 %56, %spec.store.select
  store i64 %57, ptr %.0, align 8, !tbaa !91
  br label %.thread

.thread:                                          ; preds = %42, %5, %9, %14, %23, %4, %50, %33
  ret void
}